; Function Attrs: mustprogress uwtable
define noundef zeroext i1 @_ZN5ImGui16CollapsingHeaderEPKci(ptr noundef %0, i32 noundef %1) local_unnamed_addr #6 {
  %3 = load ptr, ptr @GImGui, align 8, !tbaa !3
  %4 = getelementptr inbounds nuw i8, ptr %3, i64 5016
  %5 = load ptr, ptr %4, align 8, !tbaa !8
  %6 = getelementptr inbounds nuw i8, ptr %5, i64 204
  store i8 1, ptr %6, align 4, !tbaa !130
  %7 = getelementptr inbounds nuw i8, ptr %5, i64 207
  %8 = load i8, ptr %7, align 1, !tbaa !152, !range !153, !noundef !154
  %9 = trunc nuw i8 %8 to i1
  br i1 %9, label %14, label %10

10:                                               ; preds = %2
  %11 = tail call noundef i32 @_ZN11ImGuiWindow5GetIDEPKcS1_(ptr noundef nonnull align 8 dereferenceable(1061) %5, ptr noundef %0, ptr noundef null)
  %12 = or i32 %1, 26
  %13 = tail call noundef zeroext i1 @_ZN5ImGui16TreeNodeBehaviorEjiPKcS1_(i32 noundef %11, i32 noundef %12, ptr noundef %0, ptr noundef null)
  br label %14

14:                                               ; preds = %2, %10
  %.0 = phi i1 [ %13, %10 ], [ false, %2 ]
  ret i1 %.0
}